; Function Attrs: mustprogress nounwind uwtable
define void @_ZN6casadi4DpleD2Ev(ptr noundef nonnull align 8 dereferenceable(1360) %0) unnamed_addr #4 align 2 {
  store ptr getelementptr inbounds ({ [112 x ptr], [3 x ptr] }, ptr @_ZTVN6casadi4DpleE, i64 0, i32 0, i64 2), ptr %0, align 8
  %2 = getelementptr inbounds i8, ptr %0, i64 1304
  store ptr getelementptr inbounds ({ [112 x ptr], [3 x ptr] }, ptr @_ZTVN6casadi4DpleE, i64 0, i32 1, i64 2), ptr %2, align 8
  %3 = getelementptr inbounds i8, ptr %0, i64 1320
  tail call void @_ZN6casadi12SharedObjectD2Ev(ptr noundef nonnull align 8 dereferenceable(8) %3) #21
  %4 = getelementptr inbounds i8, ptr %0, i64 1312
  tail call void @_ZN6casadi12SharedObjectD2Ev(ptr noundef nonnull align 8 dereferenceable(8) %4) #21
  tail call void @_ZN6casadi16FunctionInternalD2Ev(ptr noundef nonnull align 8 dereferenceable(1304) %0) #21
  ret void
}